Certificate:
    Data:
        Version: 3 (0x2)
        Serial Number: 4 (0x4)
        Signature Algorithm: sha512WithRSAEncryption
        Issuer: CN=CyberSecurity CA, ST=Italy, C=EU/emailAddress=cybersec@mycert.it, O=Root Cert Authority
        Validity
            Not Before: Oct  8 08:38:18 2024 GMT
            Not After : Oct  8 08:38:18 2025 GMT
        Subject: CN=cyberservnew.it, C=IT, ST=LAZIO, O=Root Cert Authority, OU=CyberServNew/emailAddress=cyberservnew@gmail.com
        Subject Public Key Info:
            Public Key Algorithm: rsaEncryption
                Public-Key: (2048 bit)
                Modulus:
                    00:ba:38:f4:02:d3:75:6e:b2:ed:0e:50:79:bf:16:
                    0c:89:83:32:d7:ac:e9:a6:80:9b:63:86:84:7d:53:
                    90:db:f8:4f:87:32:4f:73:97:26:50:4d:11:db:df:
                    9e:77:0b:e7:85:c8:66:0f:a3:7e:69:5e:dd:3b:12:
                    2f:55:c6:f3:37:1c:b4:05:f3:36:2b:65:e5:da:8d:
                    61:02:8d:d6:99:a1:24:dc:bc:30:af:ec:cb:e8:20:
                    b9:8c:60:98:4e:35:9e:5d:b5:af:88:b1:3e:e3:31:
                    82:65:5e:d6:02:c1:bb:8e:21:65:67:36:24:87:4e:
                    e7:a9:c4:ff:63:70:67:a0:e5:45:39:04:e2:1e:d6:
                    9f:03:0c:52:db:1e:85:81:7c:aa:36:d6:f4:e5:c8:
                    3d:4c:66:f2:d1:3f:07:37:93:2e:9c:2d:59:ef:3a:
                    a0:98:c2:2e:e8:5c:16:26:2b:31:ba:0c:91:59:c4:
                    5c:a6:b6:3d:17:3f:74:9f:84:01:b4:22:f1:fa:e1:
                    61:5f:da:78:00:a9:66:de:2b:0e:16:a4:91:66:a2:
                    c1:1a:2b:64:b5:44:c8:31:73:04:ad:7b:6d:3e:29:
                    7b:08:3c:b7:04:3b:c9:c0:13:55:fc:2f:7b:d9:d7:
                    d2:b8:a3:ca:21:ef:06:5b:4c:06:8c:43:00:20:dd:
                    a3:3f
                Exponent: 65537 (0x10001)
        X509v3 extensions:
            X509v3 Basic Constraints: 
                CA:FALSE
            X509v3 Subject Key Identifier: 
                4D:44:8C:6D:28:75:F2:7D:E0:4C:D6:40:1C:16:D7:2C:9F:ED:52:5D
            X509v3 Authority Key Identifier: 
                4C:53:C2:5A:F1:F7:A0:CA:35:1A:6F:DD:D2:0D:10:F8:31:F6:72:BB
    Signature Algorithm: sha512WithRSAEncryption
    Signature Value:
        07:87:8a:86:d1:44:79:ea:23:c5:df:e8:d1:fd:f3:dc:78:15:
        17:e3:02:32:8c:57:d1:6f:12:8d:db:ce:b3:64:de:ad:b4:de:
        a9:c2:7a:fb:e4:87:88:88:ea:3e:8f:cf:4c:35:de:c7:e4:84:
        1d:0f:0f:ec:89:31:03:e3:d5:a3:14:fe:b1:5b:fa:d8:97:f3:
        25:b6:9c:99:9e:f9:be:b6:2f:5d:18:1c:47:28:02:ce:28:a7:
        9a:b1:4f:f2:89:d1:09:41:80:ad:47:3b:00:07:61:bb:93:69:
        6e:a6:54:e7:1a:98:39:e7:ee:38:db:5d:bf:23:6e:5e:26:96:
        f1:1c:f0:5c:64:2c:eb:5a:22:5f:c1:97:d7:32:74:cc:f5:7e:
        ac:71:b7:2e:18:67:54:90:79:2f:68:8d:47:96:42:61:f6:68:
        2b:20:90:38:f6:57:d5:34:49:4f:a5:e6:9a:d6:33:1b:66:f8:
        a4:99:6a:65:5c:9c:f7:94:84:b4:fb:0a:d6:b9:39:a6:31:58:
        b7:c2:d1:58:84:af:2c:3b:4b:0d:88:d6:8f:79:34:85:ff:fa:
        3a:ab:5c:27:13:a1:2b:bf:42:d9:c4:db:d1:f1:fd:fc:71:bd:
        20:61:ee:b3:8e:97:ee:b4:4c:77:1f:97:33:f0:94:21:48:6c:
        03:b3:d5:ff
-----BEGIN CERTIFICATE-----
MIID1TCCAr2gAwIBAgIBBDANBgkqhkiG9w0BAQ0FADB5MRkwFwYDVQQDDBBDeWJl
clNlY3VyaXR5IENBMQ4wDAYDVQQIDAVJdGFseTELMAkGA1UEBhMCRVUxITAfBgkq
hkiG9w0BCQEWEmN5YmVyc2VjQG15Y2VydC5pdDEcMBoGA1UECgwTUm9vdCBDZXJ0
IEF1dGhvcml0eTAeFw0yNDEwMDgwODM4MThaFw0yNTEwMDgwODM4MThaMIGTMRgw
FgYDVQQDDA9jeWJlcnNlcnZuZXcuaXQxCzAJBgNVBAYTAklUMQ4wDAYDVQQIDAVM
QVpJTzEcMBoGA1UECgwTUm9vdCBDZXJ0IEF1dGhvcml0eTEVMBMGA1UECwwMQ3li
ZXJTZXJ2TmV3MSUwIwYJKoZIhvcNAQkBFhZjeWJlcnNlcnZuZXdAZ21haWwuY29t
MIIBIjANBgkqhkiG9w0BAQEFAAOCAQ8AMIIBCgKCAQEAujj0AtN1brLtDlB5vxYM
iYMy16zppoCbY4aEfVOQ2/hPhzJPc5cmUE0R29+edwvnhchmD6N+aV7dOxIvVcbz
Nxy0BfM2K2Xl2o1hAo3WmaEk3Lwwr+zL6CC5jGCYTjWeXbWviLE+4zGCZV7WAsG7
jiFlZzYkh07nqcT/Y3BnoOVFOQTiHtafAwxS2x6FgXyqNtb05cg9TGby0T8HN5Mu
nC1Z7zqgmMIu6FwWJisxugyRWcRcprY9Fz90n4QBtCLx+uFhX9p4AKlm3isOFqSR
ZqLBGitktUTIMXMErXttPil7CDy3BDvJwBNV/C972dfSuKPKIe8GW0wGjEMAIN2j
PwIDAQABo00wSzAJBgNVHRMEAjAAMB0GA1UdDgQWBBRNRIxtKHXyfeBM1kAcFtcs
n+1SXTAfBgNVHSMEGDAWgBRMU8Ja8fegyjUab93SDRD4MfZyuzANBgkqhkiG9w0B
AQ0FAAOCAQEAB4eKhtFEeeojxd/o0f3z3HgVF+MCMoxX0W8SjdvOs2TerbTeqcJ6
++SHiIjqPo/PTDXex+SEHQ8P7IkxA+PVoxT+sVv62JfzJbacmZ75vrYvXRgcRygC
ziinmrFP8onRCUGArUc7AAdhu5NpbqZU5xqYOefuONtdvyNuXiaW8RzwXGQs61oi
X8GX1zJ0zPV+rHG3LhhnVJB5L2iNR5ZCYfZoKyCQOPZX1TRJT6XmmtYzG2b4pJlq
ZVyc95SEtPsK1rk5pjFYt8LRWISvLDtLDYjWj3k0hf/6OqtcJxOhK79C2cTb0fH9
/HG9IGHus46X7rRMdx+XM/CUIUhsA7PV/w==
-----END CERTIFICATE-----
